(dp0
S'schedIROptions'
p1
S'pct,10,true,pct,60,true'
p2
sS'doHighlightFont'
p3
S'false'
p4
sS'zoomAndScroll'
p5
(dp6
L1329136289941L
(lp7
I1
aI71
asL1426961532731L
(lp8
I1
aI0
asL1426961532732L
(lp9
I1
aI0
asL1426961532640L
(lp10
I1
aI0
asL1426961532734L
(lp11
I1
aI0
asL1426961532740L
(lp12
I1
aI0
asL1319617172958L
(lp13
I1
aI94
asL1312402162984L
(lp14
I1
aI0
asL1335955561825L
(lp15
I1
aI18
asL1426961532748L
(lp16
I1
aI0
asL1427373306326L
(lp17
I1
aI0
asL1311591167218L
(lp18
I1
aI78
asL1329135985015L
(lp19
I1
aI135
asL1329134469651L
(lp20
I1
aI82
asL1312030285828L
(lp21
I1
aI82
asL1319618145674L
(lp22
I1
aI0
asL1336208436350L
(lp23
I1
aI60
asL1426961532661L
(lp24
I1
aI0
asL1428090510326L
(lp25
I1
aI129
asL1428090510328L
(lp26
I1
aI129
asL1329134885008L
(lp27
I1
aI195
asL1428090510330L
(lp28
I1
aI129
asL1428090510332L
(lp29
I1
aI129
asL1428090510334L
(lp30
I1
aI70
asL1312405099546L
(lp31
I1
aI147
asL1428090510336L
(lp32
I1
aI7
asL1428090510338L
(lp33
I1
aI129
asL1428090510340L
(lp34
I1
aI0
asL1312014524968L
(lp35
I1
aI86
asL1312402070578L
(lp36
I1
aI0
asL1319618222002L
(lp37
I1
aI0
asL1312402302015L
(lp38
I1
aI0
asL1426961532787L
(lp39
I1
aI0
asL1426961532649L
(lp40
I1
aI1
assS'highlightColor'
p41
S'yellow'
p42
s.